target datalayout = "e-m:e-p270:32:32-p271:32:32-p272:64:64-i64:64-i128:128-f80:128-n8:16:32:64-S128"
target triple = "x86_64-pc-linux-gnu"

%"struct.cv::rgb" = type { i8, i8, i8 }
%"class.std::__cxx11::basic_string" = type { %"struct.std::__cxx11::basic_string<char>::_Alloc_hider", i64, %union.anon }
%"struct.std::__cxx11::basic_string<char>::_Alloc_hider" = type { ptr }
%union.anon = type { i64, [8 x i8] }
%"class.cv::PngEncoder" = type <{ %"class.cv::BaseImageEncoder", %"class.cv::AutoBuffer.31", %"class.cv::AutoBuffer.31", %"class.cv::AutoBuffer.31", %"class.cv::AutoBuffer.31", %"class.cv::AutoBuffer.31", %"class.cv::AutoBuffer.31", %"class.cv::AutoBuffer.31", %struct.z_stream_s, %struct.z_stream_s, [6 x %"struct.cv::OP"], [256 x %"struct.cv::rgb"], [256 x i8], i32, i32, i32, [4 x i8] }>
%"class.cv::BaseImageEncoder" = type { ptr, %"class.std::__cxx11::basic_string", %"class.std::__cxx11::basic_string", ptr, i8, %"class.std::__cxx11::basic_string" }
%"class.cv::AutoBuffer.31" = type { ptr, i64, [1032 x i8] }
%struct.z_stream_s = type { ptr, i32, i64, ptr, i32, i64, ptr, ptr, ptr, ptr, ptr, i32, i64, i64 }
%"struct.cv::OP" = type { ptr, i32, i32, i32, i32, i32, i32, i32 }

@.str.12 = private unnamed_addr constant [5 x i8] c"fdAT\00", align 1

; Function Attrs: mustprogress uwtable
define hidden void @_ZN2cv10PngEncoder10writeChunkEP8_IO_FILEPKcPhj(ptr noundef nonnull align 8 dereferenceable(8960) %0, ptr noundef %1, ptr noundef %2, ptr noundef %3, i32 noundef %4) #5 align 2 {
  %6 = alloca ptr, align 8
  %7 = alloca ptr, align 8
  %8 = alloca ptr, align 8
  %9 = alloca ptr, align 8
  %10 = alloca i32, align 4
  %11 = alloca [4 x i8], align 1
  %12 = alloca i32, align 4
  store ptr %0, ptr %6, align 8, !tbaa !209
  store ptr %1, ptr %7, align 8, !tbaa !233
  store ptr %2, ptr %8, align 8, !tbaa !42
  store ptr %3, ptr %9, align 8, !tbaa !42
  store i32 %4, ptr %10, align 4, !tbaa !31
  %13 = load ptr, ptr %6, align 8
  call void @llvm.lifetime.start.p0(i64 4, ptr %11) #3
  call void @llvm.lifetime.start.p0(i64 4, ptr %12) #3
  %14 = call i64 @crc32(i64 noundef 0, ptr noundef null, i32 noundef 0)
  %15 = trunc i64 %14 to i32
  store i32 %15, ptr %12, align 4, !tbaa !31
  %16 = getelementptr inbounds [4 x i8], ptr %11, i64 0, i64 0
  %17 = load i32, ptr %10, align 4, !tbaa !31
  call void @png_save_uint_32(ptr noundef %16, i32 noundef %17)
  %18 = getelementptr inbounds [4 x i8], ptr %11, i64 0, i64 0
  %19 = load ptr, ptr %7, align 8, !tbaa !233
  %20 = call noundef i64 @_ZN2cv10PngEncoder21writeToStreamOrBufferEPKvmP8_IO_FILE(ptr noundef nonnull align 8 dereferenceable(8960) %13, ptr noundef %18, i64 noundef 4, ptr noundef %19)
  %21 = load ptr, ptr %8, align 8, !tbaa !42
  %22 = load ptr, ptr %7, align 8, !tbaa !233
  %23 = call noundef i64 @_ZN2cv10PngEncoder21writeToStreamOrBufferEPKvmP8_IO_FILE(ptr noundef nonnull align 8 dereferenceable(8960) %13, ptr noundef %21, i64 noundef 4, ptr noundef %22)
  %24 = load i32, ptr %12, align 4, !tbaa !31
  %25 = zext i32 %24 to i64
  %26 = load ptr, ptr %8, align 8, !tbaa !42
  %27 = call i64 @crc32(i64 noundef %25, ptr noundef %26, i32 noundef 4)
  %28 = trunc i64 %27 to i32
  store i32 %28, ptr %12, align 4, !tbaa !31
  %29 = load ptr, ptr %8, align 8, !tbaa !42
  %30 = call i32 @memcmp(ptr noundef %29, ptr noundef @.str.12, i64 noundef 4) #31
  %31 = icmp eq i32 %30, 0
  br i1 %31, label %32, label %47

32:                                               ; preds = %5
  %33 = getelementptr inbounds [4 x i8], ptr %11, i64 0, i64 0
  %34 = getelementptr inbounds nuw %"class.cv::PngEncoder", ptr %13, i32 0, i32 15
  %35 = load i32, ptr %34, align 8, !tbaa !219
  %36 = add i32 %35, 1
  store i32 %36, ptr %34, align 8, !tbaa !219
  call void @png_save_uint_32(ptr noundef %33, i32 noundef %35)
  %37 = getelementptr inbounds [4 x i8], ptr %11, i64 0, i64 0
  %38 = load ptr, ptr %7, align 8, !tbaa !233
  %39 = call noundef i64 @_ZN2cv10PngEncoder21writeToStreamOrBufferEPKvmP8_IO_FILE(ptr noundef nonnull align 8 dereferenceable(8960) %13, ptr noundef %37, i64 noundef 4, ptr noundef %38)
  %40 = load i32, ptr %12, align 4, !tbaa !31
  %41 = zext i32 %40 to i64
  %42 = getelementptr inbounds [4 x i8], ptr %11, i64 0, i64 0
  %43 = call i64 @crc32(i64 noundef %41, ptr noundef %42, i32 noundef 4)
  %44 = trunc i64 %43 to i32
  store i32 %44, ptr %12, align 4, !tbaa !31
  %45 = load i32, ptr %10, align 4, !tbaa !31
  %46 = sub i32 %45, 4
  store i32 %46, ptr %10, align 4, !tbaa !31
  br label %47

47:                                               ; preds = %32, %5
  %48 = load ptr, ptr %9, align 8, !tbaa !42
  %49 = icmp ne ptr %48, null
  br i1 %49, label %50, label %65

50:                                               ; preds = %47
  %51 = load i32, ptr %10, align 4, !tbaa !31
  %52 = icmp ugt i32 %51, 0
  br i1 %52, label %53, label %65

53:                                               ; preds = %50
  %54 = load ptr, ptr %9, align 8, !tbaa !42
  %55 = load i32, ptr %10, align 4, !tbaa !31
  %56 = zext i32 %55 to i64
  %57 = load ptr, ptr %7, align 8, !tbaa !233
  %58 = call noundef i64 @_ZN2cv10PngEncoder21writeToStreamOrBufferEPKvmP8_IO_FILE(ptr noundef nonnull align 8 dereferenceable(8960) %13, ptr noundef %54, i64 noundef %56, ptr noundef %57)
  %59 = load i32, ptr %12, align 4, !tbaa !31
  %60 = zext i32 %59 to i64
  %61 = load ptr, ptr %9, align 8, !tbaa !42
  %62 = load i32, ptr %10, align 4, !tbaa !31
  %63 = call i64 @crc32(i64 noundef %60, ptr noundef %61, i32 noundef %62)
  %64 = trunc i64 %63 to i32
  store i32 %64, ptr %12, align 4, !tbaa !31
  br label %65

65:                                               ; preds = %53, %50, %47
  %66 = getelementptr inbounds [4 x i8], ptr %11, i64 0, i64 0
  %67 = load i32, ptr %12, align 4, !tbaa !31
  call void @png_save_uint_32(ptr noundef %66, i32 noundef %67)
  %68 = getelementptr inbounds [4 x i8], ptr %11, i64 0, i64 0
  %69 = load ptr, ptr %7, align 8, !tbaa !233
  %70 = call noundef i64 @_ZN2cv10PngEncoder21writeToStreamOrBufferEPKvmP8_IO_FILE(ptr noundef nonnull align 8 dereferenceable(8960) %13, ptr noundef %68, i64 noundef 4, ptr noundef %69)
  call void @llvm.lifetime.end.p0(i64 4, ptr %12) #3
  call void @llvm.lifetime.end.p0(i64 4, ptr %11) #3
  ret void
}