; Function Attrs: mustprogress uwtable
define hidden void @_ZN2cv10PngEncoder10writeChunkEP8_IO_FILEPKcPhj(ptr noundef nonnull align 8 captures(none) dereferenceable(8960) %0, ptr noundef %1, ptr noundef %2, ptr noundef %3, i32 noundef %4) local_unnamed_addr #5 align 2 {
  %6 = alloca [4 x i8], align 1
  call void @llvm.lifetime.start.p0(i64 4, ptr nonnull %6) #33
  %7 = tail call i64 @crc32(i64 noundef 0, ptr noundef null, i32 noundef 0)
  call void @png_save_uint_32(ptr noundef nonnull %6, i32 noundef %4)
  %8 = call noundef i64 @_ZN2cv10PngEncoder21writeToStreamOrBufferEPKvmP8_IO_FILE(ptr noundef nonnull align 8 dereferenceable(8960) %0, ptr noundef nonnull %6, i64 noundef 4, ptr noundef %1)
  %9 = call noundef i64 @_ZN2cv10PngEncoder21writeToStreamOrBufferEPKvmP8_IO_FILE(ptr noundef nonnull align 8 dereferenceable(8960) %0, ptr noundef %2, i64 noundef 4, ptr noundef %1)
  %10 = and i64 %7, 4294967295
  %11 = call i64 @crc32(i64 noundef %10, ptr noundef %2, i32 noundef 4)
  %bcmp = call i32 @bcmp(ptr noundef nonnull dereferenceable(4) %2, ptr noundef nonnull dereferenceable(4) @.str.12, i64 4)
  %12 = icmp eq i32 %bcmp, 0
  br i1 %12, label %13, label %21

13:                                               ; preds = %5
  %14 = getelementptr inbounds nuw i8, ptr %0, i64 8952
  %15 = load i32, ptr %14, align 8, !tbaa !233
  %16 = add i32 %15, 1
  store i32 %16, ptr %14, align 8, !tbaa !233
  call void @png_save_uint_32(ptr noundef nonnull %6, i32 noundef %15)
  %17 = call noundef i64 @_ZN2cv10PngEncoder21writeToStreamOrBufferEPKvmP8_IO_FILE(ptr noundef nonnull align 8 dereferenceable(8960) %0, ptr noundef nonnull %6, i64 noundef 4, ptr noundef %1)
  %18 = and i64 %11, 4294967295
  %19 = call i64 @crc32(i64 noundef %18, ptr noundef nonnull %6, i32 noundef 4)
  %20 = add i32 %4, -4
  br label %21

21:                                               ; preds = %13, %5
  %.021 = phi i32 [ %20, %13 ], [ %4, %5 ]
  %.0.in = phi i64 [ %19, %13 ], [ %11, %5 ]
  %22 = icmp ne ptr %3, null
  %23 = icmp ne i32 %.021, 0
  %or.cond = and i1 %22, %23
  br i1 %or.cond, label %24, label %29

24:                                               ; preds = %21
  %25 = zext i32 %.021 to i64
  %26 = call noundef i64 @_ZN2cv10PngEncoder21writeToStreamOrBufferEPKvmP8_IO_FILE(ptr noundef nonnull align 8 dereferenceable(8960) %0, ptr noundef nonnull %3, i64 noundef %25, ptr noundef %1)
  %27 = and i64 %.0.in, 4294967295
  %28 = call i64 @crc32(i64 noundef %27, ptr noundef nonnull %3, i32 noundef %.021)
  br label %29

29:                                               ; preds = %24, %21
  %.1.in = phi i64 [ %28, %24 ], [ %.0.in, %21 ]
  %.1 = trunc i64 %.1.in to i32
  call void @png_save_uint_32(ptr noundef nonnull %6, i32 noundef %.1)
  %30 = call noundef i64 @_ZN2cv10PngEncoder21writeToStreamOrBufferEPKvmP8_IO_FILE(ptr noundef nonnull align 8 dereferenceable(8960) %0, ptr noundef nonnull %6, i64 noundef 4, ptr noundef %1)
  call void @llvm.lifetime.end.p0(i64 4, ptr nonnull %6) #33
  ret void
}